; Function Attrs: nounwind uwtable
define void @ff_mpeg_draw_horiz_band(ptr noundef readonly captures(none) %0, i32 noundef %1, i32 noundef %2) local_unnamed_addr #3 {
  %4 = getelementptr inbounds nuw i8, ptr %0, i64 472
  %5 = load ptr, ptr %4, align 8, !tbaa !4
  %6 = getelementptr inbounds nuw i8, ptr %0, i64 1208
  %7 = load ptr, ptr %6, align 8, !tbaa !103
  %8 = load ptr, ptr %7, align 8, !tbaa !82
  %9 = getelementptr inbounds nuw i8, ptr %0, i64 968
  %10 = load ptr, ptr %9, align 8, !tbaa !76
  %.not = icmp eq ptr %10, null
  br i1 %.not, label %13, label %11

11:                                               ; preds = %3
  %12 = load ptr, ptr %10, align 8, !tbaa !82
  br label %13

13:                                               ; preds = %3, %11
  %14 = phi ptr [ %12, %11 ], [ null, %3 ]
  %15 = getelementptr inbounds nuw i8, ptr %0, i64 4212
  %16 = load i32, ptr %15, align 4, !tbaa !79
  %17 = getelementptr inbounds nuw i8, ptr %0, i64 4280
  %18 = load i32, ptr %17, align 8, !tbaa !80
  %19 = getelementptr inbounds nuw i8, ptr %0, i64 4104
  %20 = load i32, ptr %19, align 8, !tbaa !72
  tail call void @ff_draw_horiz_band(ptr noundef %5, ptr noundef %8, ptr noundef %14, i32 noundef %1, i32 noundef %2, i32 noundef %16, i32 noundef %18, i32 noundef %20) #10
  ret void
}